target datalayout = "e-m:e-p270:32:32-p271:32:32-p272:64:64-i64:64-i128:128-f80:128-n8:16:32:64-S128"
target triple = "x86_64-unknown-linux-gnu"

%"class.std::error_code" = type { i32, ptr }

@_ZZN6hermes12oom_categoryEvE8category = internal global { ptr } { ptr getelementptr inbounds ({ [10 x ptr] }, ptr @_ZTVZN6hermes12oom_categoryEvE16OOMErrorCategory, i32 0, i32 0, i32 2) }, align 8
@_ZGVZN6hermes12oom_categoryEvE8category = internal global i64 0, align 8
@__dso_handle = external hidden global i8

; Function Attrs: mustprogress nounwind uwtable
define linkonce_odr void @_ZNSt10error_codeC2EiRKNSt3_V214error_categoryE(ptr noundef nonnull align 8 dereferenceable(16) %this, i32 noundef %__v, ptr noundef nonnull align 8 dereferenceable(8) %__cat) unnamed_addr #0 comdat align 2 {
entry:
  %this.addr = alloca ptr, align 8
  %__v.addr = alloca i32, align 4
  %__cat.addr = alloca ptr, align 8
  store ptr %this, ptr %this.addr, align 8
  store i32 %__v, ptr %__v.addr, align 4
  store ptr %__cat, ptr %__cat.addr, align 8
  %this1 = load ptr, ptr %this.addr, align 8
  %_M_value = getelementptr inbounds %"class.std::error_code", ptr %this1, i32 0, i32 0
  %0 = load i32, ptr %__v.addr, align 4
  store i32 %0, ptr %_M_value, align 8
  %_M_cat = getelementptr inbounds %"class.std::error_code", ptr %this1, i32 0, i32 1
  %1 = load ptr, ptr %__cat.addr, align 8
  store ptr %1, ptr %_M_cat, align 8
  ret void
}

; Function Attrs: mustprogress nounwind uwtable
define hidden noundef nonnull align 8 dereferenceable(8) ptr @_ZN6hermes12oom_categoryEv() #0 {
entry:
  %0 = load atomic i8, ptr @_ZGVZN6hermes12oom_categoryEvE8category acquire, align 8
  %guard.uninitialized = icmp eq i8 %0, 0
  br i1 %guard.uninitialized, label %init.check, label %init.end, !prof !4

init.check:                                       ; preds = %entry
  %1 = call i32 @__cxa_guard_acquire(ptr @_ZGVZN6hermes12oom_categoryEvE8category) #1
  %tobool = icmp ne i32 %1, 0
  br i1 %tobool, label %init, label %init.end

init:                                             ; preds = %init.check
  %2 = call i32 @__cxa_atexit(ptr @_ZZN6hermes12oom_categoryEvEN16OOMErrorCategoryD2Ev, ptr @_ZZN6hermes12oom_categoryEvE8category, ptr @__dso_handle) #1
  call void @__cxa_guard_release(ptr @_ZGVZN6hermes12oom_categoryEvE8category) #1
  br label %init.end

init.end:                                         ; preds = %init, %init.check, %entry
  ret ptr @_ZZN6hermes12oom_categoryEvE8category
}

; Function Attrs: mustprogress nounwind uwtable
define hidden { i32, ptr } @_ZN6hermes15make_error_codeENS_8OOMErrorE(i32 noundef %err) #0 {
entry:
  %retval = alloca %"class.std::error_code", align 8
  %err.addr = alloca i32, align 4
  store i32 %err, ptr %err.addr, align 4
  %0 = load i32, ptr %err.addr, align 4
  %call = call noundef nonnull align 8 dereferenceable(8) ptr @_ZN6hermes12oom_categoryEv()
  call void @_ZNSt10error_codeC2EiRKNSt3_V214error_categoryE(ptr noundef nonnull align 8 dereferenceable(16) %retval, i32 noundef %0, ptr noundef nonnull align 8 dereferenceable(8) %call) #1
  %1 = load { i32, ptr }, ptr %retval, align 8
  ret { i32, ptr } %1
}