; Function Attrs: mustprogress nofree nounwind uwtable
define hidden { i32, ptr } @_ZN6hermes15make_error_codeENS_8OOMErrorE(i32 noundef %err) local_unnamed_addr #0 {
entry:
  %0 = load atomic i8, ptr @_ZGVZN6hermes12oom_categoryEvE8category acquire, align 8
  %guard.uninitialized.i = icmp eq i8 %0, 0
  br i1 %guard.uninitialized.i, label %init.check.i, label %_ZN6hermes12oom_categoryEv.exit, !prof !4

init.check.i:                                     ; preds = %entry
  %1 = tail call i32 @__cxa_guard_acquire(ptr nonnull @_ZGVZN6hermes12oom_categoryEvE8category) #11
  %tobool.not.i = icmp eq i32 %1, 0
  br i1 %tobool.not.i, label %_ZN6hermes12oom_categoryEv.exit, label %init.i

init.i:                                           ; preds = %init.check.i
  %2 = tail call i32 @__cxa_atexit(ptr nonnull @_ZZN6hermes12oom_categoryEvEN16OOMErrorCategoryD2Ev, ptr nonnull @_ZZN6hermes12oom_categoryEvE8category, ptr nonnull @__dso_handle) #11
  tail call void @__cxa_guard_release(ptr nonnull @_ZGVZN6hermes12oom_categoryEvE8category) #11
  br label %_ZN6hermes12oom_categoryEv.exit

_ZN6hermes12oom_categoryEv.exit:                  ; preds = %entry, %init.check.i, %init.i
  %.fca.0.insert = insertvalue { i32, ptr } poison, i32 %err, 0
  %.fca.1.insert = insertvalue { i32, ptr } %.fca.0.insert, ptr @_ZZN6hermes12oom_categoryEvE8category, 1
  ret { i32, ptr } %.fca.1.insert
}